; Function Attrs: mustprogress uwtable
define internal void @_ZNK12_GLOBAL__N_115GCPUBackendImpl7compileERKN3ade5GraphERKSt6vectorIN2cv11GCompileArgESaIS7_EERKS5_INS1_6HandleINS1_4NodeEEESaISE_EE(ptr dead_on_unwind noalias nocapture writable writeonly sret(%"class.std::unique_ptr.479") align 8 %0, ptr nocapture nonnull readnone align 8 %1, ptr noundef nonnull align 8 dereferenceable(168) %2, ptr noundef nonnull align 8 dereferenceable(24) %3, ptr nocapture noundef nonnull readonly align 8 dereferenceable(24) %4) unnamed_addr #3 align 2 personality ptr @__gxx_personality_v0 {
  %6 = tail call noalias noundef nonnull dereferenceable(1272) ptr @_Znwm(i64 noundef 1272) #24
  invoke void @_ZN2cv5gimpl14GCPUExecutableC2ERKN3ade5GraphERKSt6vectorINS_11GCompileArgESaIS7_EERKS6_INS2_6HandleINS2_4NodeEEESaISE_EE(ptr noundef nonnull align 8 dereferenceable(1272) %6, ptr noundef nonnull align 8 dereferenceable(168) %2, ptr noundef nonnull align 8 dereferenceable(24) %3, ptr noundef nonnull align 8 dereferenceable(24) %4)
          to label %7 unwind label %8

7:                                                ; preds = %5
  store ptr %6, ptr %0, align 8
  ret void

8:                                                ; preds = %5
  %9 = landingpad { ptr, i32 }
          cleanup
  tail call void @_ZdlPv(ptr noundef nonnull %6) #27
  resume { ptr, i32 } %9
}